target datalayout = "e-m:e-p270:32:32-p271:32:32-p272:64:64-i64:64-i128:128-f80:128-n8:16:32:64-S128"
target triple = "x86_64-unknown-linux-gnu"

%"class.boost::detail::shared_count" = type { ptr }
%"class.std::unique_ptr" = type { %"struct.std::__uniq_ptr_data" }
%"struct.std::__uniq_ptr_data" = type { %"class.std::__uniq_ptr_impl" }
%"class.std::__uniq_ptr_impl" = type { %"class.std::tuple" }
%"class.std::tuple" = type { %"struct.std::_Tuple_impl" }
%"struct.std::_Tuple_impl" = type { %"struct.std::_Head_base.7" }
%"struct.std::_Head_base.7" = type { ptr }
%"class.QuantLib::TripleBandLinearOp" = type { %"class.QuantLib::FdmLinearOp", i64, %"class.std::unique_ptr.31", %"class.std::unique_ptr.31", %"class.std::unique_ptr.31", %"class.std::unique_ptr", %"class.std::unique_ptr", %"class.std::unique_ptr", %"class.boost::shared_ptr.39" }
%"class.QuantLib::FdmLinearOp" = type { ptr }
%"class.std::unique_ptr.31" = type { %"struct.std::__uniq_ptr_data.32" }
%"struct.std::__uniq_ptr_data.32" = type { %"class.std::__uniq_ptr_impl.33" }
%"class.std::__uniq_ptr_impl.33" = type { %"class.std::tuple.34" }
%"class.std::tuple.34" = type { %"struct.std::_Tuple_impl.35" }
%"struct.std::_Tuple_impl.35" = type { %"struct.std::_Head_base.38" }
%"struct.std::_Head_base.38" = type { ptr }
%"class.boost::shared_ptr.39" = type { ptr, %"class.boost::detail::shared_count" }
%"class.QuantLib::FdmCIREquityPart" = type { %"class.QuantLib::FirstDerivativeOp", %"class.QuantLib::TripleBandLinearOp", %"class.QuantLib::TripleBandLinearOp", %"class.boost::shared_ptr.39", %"class.boost::shared_ptr.40", double, %"class.boost::shared_ptr.41" }
%"class.QuantLib::FirstDerivativeOp" = type { %"class.QuantLib::TripleBandLinearOp" }
%"class.boost::shared_ptr.40" = type { ptr, %"class.boost::detail::shared_count" }
%"class.boost::shared_ptr.41" = type { ptr, %"class.boost::detail::shared_count" }
%"class.QuantLib::FdmCIRRatesPart" = type { %"class.QuantLib::TripleBandLinearOp", %"class.QuantLib::TripleBandLinearOp", %"class.boost::shared_ptr.39" }
%"class.QuantLib::NinePointLinearOp" = type { %"class.QuantLib::FdmLinearOp", i64, i64, %"class.std::unique_ptr.31", %"class.std::unique_ptr.31", %"class.std::unique_ptr.31", %"class.std::unique_ptr.31", %"class.std::unique_ptr.31", %"class.std::unique_ptr.31", %"class.std::unique_ptr.31", %"class.std::unique_ptr.31", %"class.std::unique_ptr", %"class.std::unique_ptr", %"class.std::unique_ptr", %"class.std::unique_ptr", %"class.std::unique_ptr", %"class.std::unique_ptr", %"class.std::unique_ptr", %"class.std::unique_ptr", %"class.std::unique_ptr", %"class.boost::shared_ptr.39" }
%"class.QuantLib::FdmCIRMixedPart" = type { %"class.QuantLib::NinePointLinearOp", %"class.QuantLib::NinePointLinearOp", %"class.boost::shared_ptr.39", %"class.boost::shared_ptr.41", double }
%"class.boost::shared_ptr.66" = type { ptr, %"class.boost::detail::shared_count" }
%"class.QuantLib::CoxIngersollRossProcess" = type { %"class.QuantLib::StochasticProcess1D", double, double, double, double }
%"class.QuantLib::StochasticProcess1D" = type { %"class.QuantLib::StochasticProcess", %"class.boost::shared_ptr.28" }
%"class.QuantLib::StochasticProcess" = type { %"class.QuantLib::Observer", %"class.QuantLib::Observable", %"class.boost::shared_ptr.27" }
%"class.QuantLib::Observer" = type { ptr, %"class.std::set" }
%"class.std::set" = type { %"class.std::_Rb_tree" }
%"class.std::_Rb_tree" = type { %"struct.std::_Rb_tree<boost::shared_ptr<QuantLib::Observable>, boost::shared_ptr<QuantLib::Observable>, std::_Identity<boost::shared_ptr<QuantLib::Observable>>, std::less<boost::shared_ptr<QuantLib::Observable>>>::_Rb_tree_impl" }
%"struct.std::_Rb_tree<boost::shared_ptr<QuantLib::Observable>, boost::shared_ptr<QuantLib::Observable>, std::_Identity<boost::shared_ptr<QuantLib::Observable>>, std::less<boost::shared_ptr<QuantLib::Observable>>>::_Rb_tree_impl" = type { [8 x i8], %"struct.std::_Rb_tree_header" }
%"struct.std::_Rb_tree_header" = type { %"struct.std::_Rb_tree_node_base", i64 }
%"struct.std::_Rb_tree_node_base" = type { i32, ptr, ptr, ptr }
%"class.QuantLib::Observable" = type { ptr, %"class.std::set.0" }
%"class.std::set.0" = type { %"class.std::_Rb_tree.1" }
%"class.std::_Rb_tree.1" = type { %"struct.std::_Rb_tree<QuantLib::Observer *, QuantLib::Observer *, std::_Identity<QuantLib::Observer *>, std::less<QuantLib::Observer *>>::_Rb_tree_impl" }
%"struct.std::_Rb_tree<QuantLib::Observer *, QuantLib::Observer *, std::_Identity<QuantLib::Observer *>, std::less<QuantLib::Observer *>>::_Rb_tree_impl" = type { [8 x i8], %"struct.std::_Rb_tree_header" }
%"class.boost::shared_ptr.27" = type { ptr, %"class.boost::detail::shared_count" }
%"class.boost::shared_ptr.28" = type { ptr, %"class.boost::detail::shared_count" }
%"class.QuantLib::FdmCIROp" = type { %"class.QuantLib::FdmLinearOpComposite", %"class.QuantLib::FdmCIREquityPart", %"class.QuantLib::FdmCIRRatesPart", %"class.QuantLib::FdmCIRMixedPart" }
%"class.QuantLib::FdmLinearOpComposite" = type { %"class.QuantLib::FdmLinearOp" }

@_ZTVN8QuantLib11FdmLinearOpE = linkonce_odr unnamed_addr constant { [6 x ptr] } { [6 x ptr] [ptr null, ptr @_ZTIN8QuantLib11FdmLinearOpE, ptr @_ZN8QuantLib11FdmLinearOpD2Ev, ptr @_ZN8QuantLib11FdmLinearOpD0Ev, ptr @__cxa_pure_virtual, ptr @__cxa_pure_virtual] }, comdat, align 8
@.str.19 = private unnamed_addr constant [8 x i8] c"px != 0\00", align 1
@.str.20 = private unnamed_addr constant [102 x i8] c"generated/home/dtcxzyw/WorkSpace/SDK/vcpkg/installed/x64-linux/include/boost/smart_ptr/shared_ptr.hpp\00", align 1
@_ZN8QuantLib16FdmCIREquityPartC1ERKN5boost10shared_ptrINS_9FdmMesherEEERKNS2_INS_30GeneralizedBlackScholesProcessEEEd = unnamed_addr alias void (ptr, ptr, ptr, double), ptr @_ZN8QuantLib16FdmCIREquityPartC2ERKN5boost10shared_ptrINS_9FdmMesherEEERKNS2_INS_30GeneralizedBlackScholesProcessEEEd
@_ZN8QuantLib15FdmCIRRatesPartC1ERKN5boost10shared_ptrINS_9FdmMesherEEEddd = unnamed_addr alias void (ptr, ptr, double, double, double), ptr @_ZN8QuantLib15FdmCIRRatesPartC2ERKN5boost10shared_ptrINS_9FdmMesherEEEddd

; Function Attrs: inlinehint mustprogress nounwind uwtable
define linkonce_odr void @_ZN8QuantLib11FdmLinearOpC2Ev(ptr noundef nonnull align 8 dereferenceable(8) %this) unnamed_addr #10 comdat align 2 {
entry:
  %this.addr = alloca ptr, align 8
  store ptr %this, ptr %this.addr, align 8, !tbaa !3
  %this1 = load ptr, ptr %this.addr, align 8
  store ptr getelementptr inbounds inrange(-16, 32) ({ [6 x ptr] }, ptr @_ZTVN8QuantLib11FdmLinearOpE, i32 0, i32 0, i32 2), ptr %this1, align 8, !tbaa !7
  ret void
}

; Function Attrs: mustprogress nounwind uwtable
define linkonce_odr void @_ZN8QuantLib11FdmLinearOpD2Ev(ptr noundef nonnull align 8 dereferenceable(8) %this) unnamed_addr #9 comdat align 2 {
entry:
  %this.addr = alloca ptr, align 8
  store ptr %this, ptr %this.addr, align 8, !tbaa !3
  ret void
}

; Function Attrs: inlinehint mustprogress nounwind uwtable
define linkonce_odr noundef double @_ZNK8QuantLib23CoxIngersollRossProcess5levelEv(ptr noundef nonnull align 8 dereferenceable(176) %this) #10 comdat align 2 {
entry:
  %this.addr = alloca ptr, align 8
  store ptr %this, ptr %this.addr, align 8, !tbaa !3
  %this1 = load ptr, ptr %this.addr, align 8
  %level_ = getelementptr inbounds nuw %"class.QuantLib::CoxIngersollRossProcess", ptr %this1, i32 0, i32 3
  %0 = load double, ptr %level_, align 8, !tbaa !90
  ret double %0
}

; Function Attrs: inlinehint mustprogress nounwind uwtable
define linkonce_odr noundef double @_ZNK8QuantLib23CoxIngersollRossProcess5speedEv(ptr noundef nonnull align 8 dereferenceable(176) %this) #10 comdat align 2 {
entry:
  %this.addr = alloca ptr, align 8
  store ptr %this, ptr %this.addr, align 8, !tbaa !3
  %this1 = load ptr, ptr %this.addr, align 8
  %speed_ = getelementptr inbounds nuw %"class.QuantLib::CoxIngersollRossProcess", ptr %this1, i32 0, i32 2
  %0 = load double, ptr %speed_, align 8, !tbaa !89
  ret double %0
}

; Function Attrs: inlinehint mustprogress nounwind uwtable
define linkonce_odr noundef double @_ZNK8QuantLib23CoxIngersollRossProcess10volatilityEv(ptr noundef nonnull align 8 dereferenceable(176) %this) #10 comdat align 2 {
entry:
  %this.addr = alloca ptr, align 8
  store ptr %this, ptr %this.addr, align 8, !tbaa !3
  %this1 = load ptr, ptr %this.addr, align 8
  %volatility_ = getelementptr inbounds nuw %"class.QuantLib::CoxIngersollRossProcess", ptr %this1, i32 0, i32 4
  %0 = load double, ptr %volatility_, align 8, !tbaa !66
  ret double %0
}

; Function Attrs: mustprogress uwtable
define linkonce_odr noundef ptr @_ZNK5boost10shared_ptrIN8QuantLib23CoxIngersollRossProcessEEptEv(ptr noundef nonnull align 8 dereferenceable(16) %this) #7 comdat align 2 {
entry:
  %this.addr = alloca ptr, align 8
  store ptr %this, ptr %this.addr, align 8, !tbaa !3
  %this1 = load ptr, ptr %this.addr, align 8
  %px = getelementptr inbounds nuw %"class.boost::shared_ptr.66", ptr %this1, i32 0, i32 0
  %0 = load ptr, ptr %px, align 8, !tbaa !64
  %cmp = icmp ne ptr %0, null
  %lnot = xor i1 %cmp, true
  %lnot2 = xor i1 %lnot, true
  %conv = zext i1 %lnot2 to i64
  %expval = call i64 @llvm.expect.i64(i64 %conv, i64 1)
  %tobool = icmp ne i64 %expval, 0
  br i1 %tobool, label %cond.true, label %cond.false

cond.true:                                        ; preds = %entry
  br label %cond.end

cond.false:                                       ; preds = %entry
  call void @_ZN5boost16assertion_failedEPKcS1_S1_l(ptr noundef @.str.19, ptr noundef @__PRETTY_FUNCTION__._ZNK5boost10shared_ptrIN8QuantLib23CoxIngersollRossProcessEEptEv, ptr noundef @.str.20, i64 noundef 784)
  br label %cond.end

cond.end:                                         ; preds = %cond.false, %cond.true
  %px3 = getelementptr inbounds nuw %"class.boost::shared_ptr.66", ptr %this1, i32 0, i32 0
  %1 = load ptr, ptr %px3, align 8, !tbaa !64
  ret ptr %1
}

; Function Attrs: inlinehint mustprogress nounwind uwtable
define linkonce_odr void @_ZN8QuantLib20FdmLinearOpCompositeC2Ev(ptr noundef nonnull align 8 dereferenceable(8) %this) unnamed_addr #10 comdat align 2 {
entry:
  %this.addr = alloca ptr, align 8
  store ptr %this, ptr %this.addr, align 8, !tbaa !3
  %this1 = load ptr, ptr %this.addr, align 8
  call void @_ZN8QuantLib11FdmLinearOpC2Ev(ptr noundef nonnull align 8 dereferenceable(8) %this1) #3
  store ptr getelementptr inbounds inrange(-16, 88) ({ [13 x ptr] }, ptr @_ZTVN8QuantLib20FdmLinearOpCompositeE, i32 0, i32 0, i32 2), ptr %this1, align 8, !tbaa !7
  ret void
}

; Function Attrs: mustprogress uwtable
define void @_ZN8QuantLib8FdmCIROpC2ERKN5boost10shared_ptrINS_9FdmMesherEEERKNS2_INS_23CoxIngersollRossProcessEEERKNS2_INS_30GeneralizedBlackScholesProcessEEEdd(ptr noundef nonnull align 8 dereferenceable(872) %this, ptr noundef nonnull align 8 dereferenceable(16) %mesher, ptr noundef nonnull align 8 dereferenceable(16) %cirProcess, ptr noundef nonnull align 8 dereferenceable(16) %bsProcess, double noundef %rho, double noundef %strike) unnamed_addr #7 align 2 personality ptr @__gxx_personality_v0 {
entry:
  %this.addr = alloca ptr, align 8
  %mesher.addr = alloca ptr, align 8
  %cirProcess.addr = alloca ptr, align 8
  %bsProcess.addr = alloca ptr, align 8
  %rho.addr = alloca double, align 8
  %strike.addr = alloca double, align 8
  %exn.slot = alloca ptr, align 8
  %ehselector.slot = alloca i32, align 4
  store ptr %this, ptr %this.addr, align 8, !tbaa !3
  store ptr %mesher, ptr %mesher.addr, align 8, !tbaa !3
  store ptr %cirProcess, ptr %cirProcess.addr, align 8, !tbaa !3
  store ptr %bsProcess, ptr %bsProcess.addr, align 8, !tbaa !3
  store double %rho, ptr %rho.addr, align 8, !tbaa !11
  store double %strike, ptr %strike.addr, align 8, !tbaa !11
  %this1 = load ptr, ptr %this.addr, align 8
  call void @_ZN8QuantLib20FdmLinearOpCompositeC2Ev(ptr noundef nonnull align 8 dereferenceable(8) %this1) #3
  store ptr getelementptr inbounds inrange(-16, 88) ({ [13 x ptr] }, ptr @_ZTVN8QuantLib8FdmCIROpE, i32 0, i32 0, i32 2), ptr %this1, align 8, !tbaa !7
  %dxMap_ = getelementptr inbounds nuw %"class.QuantLib::FdmCIROp", ptr %this1, i32 0, i32 1
  %0 = load ptr, ptr %mesher.addr, align 8, !tbaa !3
  %1 = load ptr, ptr %bsProcess.addr, align 8, !tbaa !3
  %2 = load double, ptr %strike.addr, align 8, !tbaa !11
  invoke void @_ZN8QuantLib16FdmCIREquityPartC1ERKN5boost10shared_ptrINS_9FdmMesherEEERKNS2_INS_30GeneralizedBlackScholesProcessEEEd(ptr noundef nonnull align 8 dereferenceable(296) %dxMap_, ptr noundef nonnull align 8 dereferenceable(16) %0, ptr noundef nonnull align 8 dereferenceable(16) %1, double noundef %2)
          to label %invoke.cont unwind label %lpad

invoke.cont:                                      ; preds = %entry
  %dyMap_ = getelementptr inbounds nuw %"class.QuantLib::FdmCIROp", ptr %this1, i32 0, i32 2
  %3 = load ptr, ptr %mesher.addr, align 8, !tbaa !3
  %4 = load ptr, ptr %cirProcess.addr, align 8, !tbaa !3
  %call = invoke noundef ptr @_ZNK5boost10shared_ptrIN8QuantLib23CoxIngersollRossProcessEEptEv(ptr noundef nonnull align 8 dereferenceable(16) %4)
          to label %invoke.cont3 unwind label %lpad2

invoke.cont3:                                     ; preds = %invoke.cont
  %call5 = invoke noundef double @_ZNK8QuantLib23CoxIngersollRossProcess10volatilityEv(ptr noundef nonnull align 8 dereferenceable(176) %call)
          to label %invoke.cont4 unwind label %lpad2

invoke.cont4:                                     ; preds = %invoke.cont3
  %5 = load ptr, ptr %cirProcess.addr, align 8, !tbaa !3
  %call7 = invoke noundef ptr @_ZNK5boost10shared_ptrIN8QuantLib23CoxIngersollRossProcessEEptEv(ptr noundef nonnull align 8 dereferenceable(16) %5)
          to label %invoke.cont6 unwind label %lpad2

invoke.cont6:                                     ; preds = %invoke.cont4
  %call9 = invoke noundef double @_ZNK8QuantLib23CoxIngersollRossProcess5speedEv(ptr noundef nonnull align 8 dereferenceable(176) %call7)
          to label %invoke.cont8 unwind label %lpad2

invoke.cont8:                                     ; preds = %invoke.cont6
  %6 = load ptr, ptr %cirProcess.addr, align 8, !tbaa !3
  %call11 = invoke noundef ptr @_ZNK5boost10shared_ptrIN8QuantLib23CoxIngersollRossProcessEEptEv(ptr noundef nonnull align 8 dereferenceable(16) %6)
          to label %invoke.cont10 unwind label %lpad2

invoke.cont10:                                    ; preds = %invoke.cont8
  %call13 = invoke noundef double @_ZNK8QuantLib23CoxIngersollRossProcess5levelEv(ptr noundef nonnull align 8 dereferenceable(176) %call11)
          to label %invoke.cont12 unwind label %lpad2

invoke.cont12:                                    ; preds = %invoke.cont10
  invoke void @_ZN8QuantLib15FdmCIRRatesPartC1ERKN5boost10shared_ptrINS_9FdmMesherEEEddd(ptr noundef nonnull align 8 dereferenceable(176) %dyMap_, ptr noundef nonnull align 8 dereferenceable(16) %3, double noundef %call5, double noundef %call9, double noundef %call13)
          to label %invoke.cont14 unwind label %lpad2

invoke.cont14:                                    ; preds = %invoke.cont12
  %dzMap_ = getelementptr inbounds nuw %"class.QuantLib::FdmCIROp", ptr %this1, i32 0, i32 3
  %7 = load ptr, ptr %mesher.addr, align 8, !tbaa !3
  %8 = load ptr, ptr %cirProcess.addr, align 8, !tbaa !3
  %9 = load ptr, ptr %bsProcess.addr, align 8, !tbaa !3
  %10 = load double, ptr %rho.addr, align 8, !tbaa !11
  %11 = load double, ptr %strike.addr, align 8, !tbaa !11
  invoke void @_ZN8QuantLib15FdmCIRMixedPartC1ERKN5boost10shared_ptrINS_9FdmMesherEEERKNS2_INS_23CoxIngersollRossProcessEEERKNS2_INS_30GeneralizedBlackScholesProcessEEEdd(ptr noundef nonnull align 8 dereferenceable(392) %dzMap_, ptr noundef nonnull align 8 dereferenceable(16) %7, ptr noundef nonnull align 8 dereferenceable(16) %8, ptr noundef nonnull align 8 dereferenceable(16) %9, double noundef %10, double noundef %11)
          to label %invoke.cont16 unwind label %lpad15

invoke.cont16:                                    ; preds = %invoke.cont14
  ret void

lpad:                                             ; preds = %entry
  %12 = landingpad { ptr, i32 }
          cleanup
  %13 = extractvalue { ptr, i32 } %12, 0
  store ptr %13, ptr %exn.slot, align 8
  %14 = extractvalue { ptr, i32 } %12, 1
  store i32 %14, ptr %ehselector.slot, align 4
  br label %ehcleanup17

lpad2:                                            ; preds = %invoke.cont12, %invoke.cont10, %invoke.cont8, %invoke.cont6, %invoke.cont4, %invoke.cont3, %invoke.cont
  %15 = landingpad { ptr, i32 }
          cleanup
  %16 = extractvalue { ptr, i32 } %15, 0
  store ptr %16, ptr %exn.slot, align 8
  %17 = extractvalue { ptr, i32 } %15, 1
  store i32 %17, ptr %ehselector.slot, align 4
  br label %ehcleanup

lpad15:                                           ; preds = %invoke.cont14
  %18 = landingpad { ptr, i32 }
          cleanup
  %19 = extractvalue { ptr, i32 } %18, 0
  store ptr %19, ptr %exn.slot, align 8
  %20 = extractvalue { ptr, i32 } %18, 1
  store i32 %20, ptr %ehselector.slot, align 4
  call void @_ZN8QuantLib15FdmCIRRatesPartD2Ev(ptr noundef nonnull align 8 dereferenceable(176) %dyMap_) #3
  br label %ehcleanup

ehcleanup:                                        ; preds = %lpad15, %lpad2
  call void @_ZN8QuantLib16FdmCIREquityPartD2Ev(ptr noundef nonnull align 8 dereferenceable(296) %dxMap_) #3
  br label %ehcleanup17

ehcleanup17:                                      ; preds = %ehcleanup, %lpad
  call void @_ZN8QuantLib11FdmLinearOpD2Ev(ptr noundef nonnull align 8 dereferenceable(8) %this1) #3
  br label %eh.resume

eh.resume:                                        ; preds = %ehcleanup17
  %exn = load ptr, ptr %exn.slot, align 8
  %sel = load i32, ptr %ehselector.slot, align 4
  %lpad.val = insertvalue { ptr, i32 } poison, ptr %exn, 0
  %lpad.val18 = insertvalue { ptr, i32 } %lpad.val, i32 %sel, 1
  resume { ptr, i32 } %lpad.val18
}