; Function Attrs: mustprogress uwtable
define void @_ZN8QuantLib8FdmCIROpC2ERKN5boost10shared_ptrINS_9FdmMesherEEERKNS2_INS_23CoxIngersollRossProcessEEERKNS2_INS_30GeneralizedBlackScholesProcessEEEdd(ptr noundef nonnull align 8 dereferenceable(872) %this, ptr noundef nonnull align 8 dereferenceable(16) %mesher, ptr noundef nonnull align 8 dereferenceable(16) %cirProcess, ptr noundef nonnull align 8 dereferenceable(16) %bsProcess, double noundef %rho, double noundef %strike) unnamed_addr #6 align 2 personality ptr @__gxx_personality_v0 {
entry:
  store ptr getelementptr inbounds inrange(-16, 88) (i8, ptr @_ZTVN8QuantLib8FdmCIROpE, i64 16), ptr %this, align 8, !tbaa !14
  %dxMap_ = getelementptr inbounds nuw i8, ptr %this, i64 8
  tail call void @_ZN8QuantLib16FdmCIREquityPartC1ERKN5boost10shared_ptrINS_9FdmMesherEEERKNS2_INS_30GeneralizedBlackScholesProcessEEEd(ptr noundef nonnull align 8 dereferenceable(296) %dxMap_, ptr noundef nonnull align 8 dereferenceable(16) %mesher, ptr noundef nonnull align 8 dereferenceable(16) %bsProcess, double noundef %strike)
  %dyMap_ = getelementptr inbounds nuw i8, ptr %this, i64 304
  %0 = load ptr, ptr %cirProcess, align 8, !tbaa !97
  %cmp.not.i = icmp eq ptr %0, null
  br i1 %cmp.not.i, label %cond.false.i, label %invoke.cont10, !prof !22

cond.false.i:                                     ; preds = %entry
  invoke void @_ZN5boost16assertion_failedEPKcS1_S1_l(ptr noundef nonnull @.str.19, ptr noundef nonnull @__PRETTY_FUNCTION__._ZNK5boost10shared_ptrIN8QuantLib23CoxIngersollRossProcessEEptEv, ptr noundef nonnull @.str.20, i64 noundef 784)
          to label %invoke.cont3 unwind label %lpad2

invoke.cont3:                                     ; preds = %cond.false.i
  %.pre.i = load ptr, ptr %cirProcess, align 8, !tbaa !97
  br label %invoke.cont10

invoke.cont10:                                    ; preds = %entry, %invoke.cont3
  %.sink = phi ptr [ %.pre.i, %invoke.cont3 ], [ %0, %entry ]
  %volatility_.i20 = getelementptr inbounds nuw i8, ptr %.sink, i64 168
  %1 = load double, ptr %volatility_.i20, align 8, !tbaa !99
  %speed_.i24 = getelementptr inbounds nuw i8, ptr %.sink, i64 152
  %2 = load double, ptr %speed_.i24, align 8, !tbaa !125
  %level_.i = getelementptr inbounds nuw i8, ptr %.sink, i64 160
  %3 = load double, ptr %level_.i, align 8, !tbaa !126
  invoke void @_ZN8QuantLib15FdmCIRRatesPartC1ERKN5boost10shared_ptrINS_9FdmMesherEEEddd(ptr noundef nonnull align 8 dereferenceable(176) %dyMap_, ptr noundef nonnull align 8 dereferenceable(16) %mesher, double noundef %1, double noundef %2, double noundef %3)
          to label %invoke.cont14 unwind label %lpad2

invoke.cont14:                                    ; preds = %invoke.cont10
  %dzMap_ = getelementptr inbounds nuw i8, ptr %this, i64 480
  invoke void @_ZN8QuantLib15FdmCIRMixedPartC1ERKN5boost10shared_ptrINS_9FdmMesherEEERKNS2_INS_23CoxIngersollRossProcessEEERKNS2_INS_30GeneralizedBlackScholesProcessEEEdd(ptr noundef nonnull align 8 dereferenceable(392) %dzMap_, ptr noundef nonnull align 8 dereferenceable(16) %mesher, ptr noundef nonnull align 8 dereferenceable(16) %cirProcess, ptr noundef nonnull align 8 dereferenceable(16) %bsProcess, double noundef %rho, double noundef %strike)
          to label %invoke.cont16 unwind label %lpad15

invoke.cont16:                                    ; preds = %invoke.cont14
  ret void

lpad2:                                            ; preds = %cond.false.i, %invoke.cont10
  %4 = landingpad { ptr, i32 }
          cleanup
  br label %ehcleanup

lpad15:                                           ; preds = %invoke.cont14
  %5 = landingpad { ptr, i32 }
          cleanup
  tail call void @_ZN8QuantLib15FdmCIRRatesPartD2Ev(ptr noundef nonnull align 8 dereferenceable(176) %dyMap_) #23
  br label %ehcleanup

ehcleanup:                                        ; preds = %lpad15, %lpad2
  %.pn = phi { ptr, i32 } [ %5, %lpad15 ], [ %4, %lpad2 ]
  tail call void @_ZN8QuantLib16FdmCIREquityPartD2Ev(ptr noundef nonnull align 8 dereferenceable(296) %dxMap_) #23
  resume { ptr, i32 } %.pn
}